Certificate:
    Data:
        Version: 3 (0x2)
        Serial Number:
            ed:7c:69:f6:ef:3c:10:fb:13:4b:f2:de:f1:5b:5b:00
        Signature Algorithm: sha256WithRSAEncryption
        Issuer: CN=NSD_PROJECT
        Validity
            Not Before: Feb 20 15:38:42 2024 GMT
            Not After : May 25 15:38:42 2026 GMT
        Subject: CN=client_a2
        Subject Public Key Info:
            Public Key Algorithm: rsaEncryption
                Public-Key: (2048 bit)
                Modulus:
                    00:d2:64:24:6e:cf:38:1e:30:12:80:33:0e:50:41:
                    f6:4c:78:e6:db:87:86:9d:51:d5:a4:c2:1c:cf:d4:
                    11:3a:d3:ef:18:36:ed:64:72:5f:44:e9:42:d3:5e:
                    25:08:03:29:14:80:11:37:eb:7d:90:18:6b:e3:ee:
                    0b:d2:b9:46:9a:5b:38:ae:7d:82:db:b2:a7:87:2d:
                    29:96:ee:74:d6:84:c5:27:32:0a:fa:35:4a:89:10:
                    98:6a:b0:2b:43:fc:1a:59:84:2e:49:f1:b3:2e:e6:
                    97:9d:60:e5:b6:85:62:c0:76:d1:05:16:a3:1a:14:
                    9d:60:06:02:6a:b6:90:c1:75:37:57:0b:15:c6:8f:
                    52:c7:16:02:bd:d7:12:73:cf:47:65:a8:00:4a:5e:
                    b0:02:39:f4:8d:ad:52:2e:c9:b7:fd:43:1a:4b:c4:
                    ae:ab:0a:96:46:52:ec:26:c6:4b:45:0c:df:82:eb:
                    40:e0:36:84:0d:85:80:bb:d3:60:45:b5:cd:d3:ee:
                    b1:c9:c4:a6:32:c7:a2:5e:f7:9c:af:e5:a9:d4:22:
                    82:10:2e:aa:3a:08:4c:21:3d:28:18:b1:6d:79:05:
                    29:c9:17:a3:6e:a8:03:44:47:c7:b5:05:53:6a:bb:
                    6d:ef:36:54:a4:f1:a7:b7:01:8e:bb:4a:0a:23:76:
                    6d:4f
                Exponent: 65537 (0x10001)
        X509v3 extensions:
            X509v3 Basic Constraints: 
                CA:FALSE
            X509v3 Subject Key Identifier: 
                77:E8:6F:61:F8:AD:80:67:4D:E9:11:C3:23:1A:24:6D:BE:21:64:24
            X509v3 Authority Key Identifier: 
                keyid:57:CA:BF:0F:99:A4:DB:6D:7F:42:66:9D:22:B8:F2:1E:84:20:1D:CD
                DirName:/CN=NSD_PROJECT
                serial:65:7B:BE:A7:2B:33:96:E6:68:3E:3A:46:D0:97:AB:0D:A3:95:E7:13
            X509v3 Extended Key Usage: 
                TLS Web Client Authentication
            X509v3 Key Usage: 
                Digital Signature
    Signature Algorithm: sha256WithRSAEncryption
    Signature Value:
        6d:49:6a:69:97:9b:6a:54:07:b1:7b:64:51:83:8d:30:36:bc:
        9b:d2:bf:dd:1f:45:64:4d:a1:83:80:e1:d8:07:f7:79:b8:c5:
        72:2d:a8:f6:21:6d:25:97:ea:51:6e:cf:39:42:2d:d1:51:d5:
        0d:4d:8c:6e:b1:ba:bd:07:07:e0:3d:5f:52:25:56:ab:77:48:
        22:67:2a:40:27:60:58:82:02:87:53:06:6c:38:e2:63:59:ce:
        03:bc:b0:bb:e2:0b:c1:af:84:90:68:f0:70:f8:d0:72:e0:c2:
        d4:d2:d3:ee:76:a5:7e:46:24:1b:ca:f6:07:79:58:41:d5:ce:
        ea:31:da:da:8b:f0:cf:46:e4:e0:6a:a5:84:e4:a3:18:6c:4f:
        df:97:2c:e1:0f:89:85:fe:16:f0:48:67:3a:f9:5f:9e:fa:f1:
        65:f4:9c:6c:98:7b:e1:3d:7b:4f:0a:43:57:00:59:aa:9d:1b:
        7f:27:57:98:5b:a9:e5:87:23:b1:e9:44:e1:19:28:7c:de:3c:
        9d:ef:b9:4f:f2:bd:90:9c:d4:1f:83:1c:62:1e:20:9e:3e:60:
        cf:91:6e:35:ad:f1:01:1a:1b:41:d8:b6:33:af:53:56:a7:3f:
        7a:90:8c:e2:25:c1:02:90:6f:12:17:f6:6c:25:3b:0d:04:9f:
        93:ab:ea:f6
-----BEGIN CERTIFICATE-----
MIIDWDCCAkCgAwIBAgIRAO18afbvPBD7E0vy3vFbWwAwDQYJKoZIhvcNAQELBQAw
FjEUMBIGA1UEAwwLTlNEX1BST0pFQ1QwHhcNMjQwMjIwMTUzODQyWhcNMjYwNTI1
MTUzODQyWjAUMRIwEAYDVQQDDAljbGllbnRfYTIwggEiMA0GCSqGSIb3DQEBAQUA
A4IBDwAwggEKAoIBAQDSZCRuzzgeMBKAMw5QQfZMeObbh4adUdWkwhzP1BE60+8Y
Nu1kcl9E6ULTXiUIAykUgBE3632QGGvj7gvSuUaaWziufYLbsqeHLSmW7nTWhMUn
Mgr6NUqJEJhqsCtD/BpZhC5J8bMu5pedYOW2hWLAdtEFFqMaFJ1gBgJqtpDBdTdX
CxXGj1LHFgK91xJzz0dlqABKXrACOfSNrVIuybf9QxpLxK6rCpZGUuwmxktFDN+C
60DgNoQNhYC702BFtc3T7rHJxKYyx6Je95yv5anUIoIQLqo6CEwhPSgYsW15BSnJ
F6NuqANER8e1BVNqu23vNlSk8ae3AY67Sgojdm1PAgMBAAGjgaIwgZ8wCQYDVR0T
BAIwADAdBgNVHQ4EFgQUd+hvYfitgGdN6RHDIxokbb4hZCQwUQYDVR0jBEowSIAU
V8q/D5mk221/QmadIrjyHoQgHc2hGqQYMBYxFDASBgNVBAMMC05TRF9QUk9KRUNU
ghRle76nKzOW5mg+OkbQl6sNo5XnEzATBgNVHSUEDDAKBggrBgEFBQcDAjALBgNV
HQ8EBAMCB4AwDQYJKoZIhvcNAQELBQADggEBAG1JammXm2pUB7F7ZFGDjTA2vJvS
v90fRWRNoYOA4dgH93m4xXItqPYhbSWX6lFuzzlCLdFR1Q1NjG6xur0HB+A9X1Il
Vqt3SCJnKkAnYFiCAodTBmw44mNZzgO8sLviC8GvhJBo8HD40HLgwtTS0+52pX5G
JBvK9gd5WEHVzuox2tqL8M9G5OBqpYTkoxhsT9+XLOEPiYX+FvBIZzr5X5768WX0
nGyYe+E9e08KQ1cAWaqdG38nV5hbqeWHI7HpROEZKHzePJ3vuU/yvZCc1B+DHGIe
IJ4+YM+RbjWt8QEaG0HYtjOvU1anP3qQjOIlwQKQbxIX9mwlOw0En5Or6vY=
-----END CERTIFICATE-----
