Certificate:
    Data:
        Version: 3 (0x2)
        Serial Number:
            69:9f:78:31:c4:64:40:28:97:37:ae:c7:43:03:b4:46
        Signature Algorithm: sha256WithRSAEncryption
        Issuer: CN=OVPN_NSD_CA
        Validity
            Not Before: Feb 19 23:16:50 2024 GMT
            Not After : May 24 23:16:50 2026 GMT
        Subject: CN=gw_client
        Subject Public Key Info:
            Public Key Algorithm: rsaEncryption
                Public-Key: (2048 bit)
                Modulus:
                    00:be:d0:17:9d:02:6e:2c:60:c8:6e:ef:14:24:7f:
                    21:ed:e5:40:08:33:75:a9:96:fb:52:96:75:f7:a4:
                    87:cc:d7:3d:05:9f:19:ba:87:8b:4a:28:bf:5f:7a:
                    bc:74:af:97:f2:29:e4:62:c5:18:34:f9:a9:9f:dd:
                    80:11:f1:33:15:08:d4:a4:14:78:0c:c3:6d:24:9d:
                    52:19:ef:14:de:bc:fc:ff:8c:75:ab:e3:65:c3:6b:
                    7d:24:31:f5:3d:bc:b3:e6:e3:b9:0f:a2:22:80:39:
                    ba:6d:36:a0:b0:1f:17:dc:11:29:4c:2d:76:ff:f1:
                    59:e6:8d:4e:b7:39:e7:03:0b:1c:07:15:b1:8f:78:
                    4b:2f:58:1e:89:89:42:e9:1a:0f:9c:77:61:a2:d5:
                    78:83:ad:d2:89:9d:18:38:31:30:13:3e:a9:70:c9:
                    41:ac:27:e6:ec:98:00:6b:78:0a:a6:c7:20:ed:85:
                    a7:6a:0b:e4:6b:98:f2:a5:a0:55:1b:e4:80:d1:37:
                    23:73:f5:03:86:42:f7:75:eb:e1:e5:a9:ba:9f:3f:
                    2f:8b:ff:2b:29:a9:1d:79:41:69:d5:41:e2:5a:ac:
                    7a:81:d3:5c:51:19:5a:93:8c:c4:57:c3:c2:1b:53:
                    4b:1f:5c:31:69:80:32:20:a8:cc:e7:9d:f4:06:30:
                    a4:31
                Exponent: 65537 (0x10001)
        X509v3 extensions:
            X509v3 Basic Constraints:
                CA:FALSE
            X509v3 Subject Key Identifier:
                34:E6:B5:B6:72:F6:48:0C:5B:6C:C6:FC:4A:5C:AD:5F:DE:5D:E7:08
            X509v3 Authority Key Identifier:
                keyid:44:17:C0:9A:77:56:38:6D:95:D4:0B:B4:1B:4B:5E:97:FF:42:BA:69
                DirName:/CN=OVPN_NSD_CA
                serial:54:AB:13:85:A7:59:AC:87:EE:9C:3E:6B:C5:6B:9C:07:49:61:F8:C0
            X509v3 Extended Key Usage:
                TLS Web Client Authentication
            X509v3 Key Usage:
                Digital Signature
    Signature Algorithm: sha256WithRSAEncryption
    Signature Value:
        11:3d:d9:c1:6e:c1:5f:a5:be:08:f4:50:c8:24:c9:b1:da:b2:
        68:4d:23:60:09:30:26:88:31:79:ca:06:da:30:3c:20:5e:1f:
        4a:57:0f:67:9d:f3:0b:e9:0f:4b:24:35:61:4f:89:c6:9e:43:
        cd:67:75:18:c4:f7:67:0d:6e:64:da:7d:3c:8f:dc:35:33:8a:
        d6:b1:cc:84:bf:33:10:d0:21:79:ff:c6:5b:b9:f3:b2:69:d7:
        bd:f3:be:8c:27:6b:93:97:ac:62:c7:14:53:31:f7:19:5f:91:
        bd:97:10:44:f5:9b:e5:66:4b:54:8f:fa:92:b9:b3:16:1a:56:
        25:f6:55:a4:36:82:59:83:57:c2:3a:37:e9:de:7f:bb:78:cd:
        89:5f:ac:e9:07:9c:4b:85:ad:be:2e:38:a3:0b:de:c0:88:e7:
        0e:09:a6:27:0e:9f:75:92:67:f4:49:ef:d1:0e:70:9f:cf:5e:
        aa:8b:3f:7f:2c:38:40:f1:b1:2f:9e:1d:6f:2c:ec:70:66:7f:
        7f:4a:e5:cf:92:ea:cf:87:d3:96:6b:80:d1:9e:c7:23:fe:33:
        ce:f9:bf:cf:a0:61:06:65:16:5f:f0:ed:25:45:a8:b7:f8:a4:
        70:de:6b:5c:30:c4:6e:3c:8b:ef:25:22:f4:7a:24:4c:f4:d1:
        d3:95:00:7c
-----BEGIN CERTIFICATE-----
MIIDVzCCAj+gAwIBAgIQaZ94McRkQCiXN67HQwO0RjANBgkqhkiG9w0BAQsFADAW
MRQwEgYDVQQDDAtPVlBOX05TRF9DQTAeFw0yNDAyMTkyMzE2NTBaFw0yNjA1MjQy
MzE2NTBaMBQxEjAQBgNVBAMMCWd3X2NsaWVudDCCASIwDQYJKoZIhvcNAQEBBQAD
ggEPADCCAQoCggEBAL7QF50CbixgyG7vFCR/Ie3lQAgzdamW+1KWdfekh8zXPQWf
GbqHi0oov196vHSvl/Ip5GLFGDT5qZ/dgBHxMxUI1KQUeAzDbSSdUhnvFN68/P+M
davjZcNrfSQx9T28s+bjuQ+iIoA5um02oLAfF9wRKUwtdv/xWeaNTrc55wMLHAcV
sY94Sy9YHomJQukaD5x3YaLVeIOt0omdGDgxMBM+qXDJQawn5uyYAGt4CqbHIO2F
p2oL5GuY8qWgVRvkgNE3I3P1A4ZC93Xr4eWpup8/L4v/KympHXlBadVB4lqseoHT
XFEZWpOMxFfDwhtTSx9cMWmAMiCozOed9AYwpDECAwEAAaOBojCBnzAJBgNVHRME
AjAAMB0GA1UdDgQWBBQ05rW2cvZIDFtsxvxKXK1f3l3nCDBRBgNVHSMESjBIgBRE
F8Cad1Y4bZXUC7QbS16X/0K6aaEapBgwFjEUMBIGA1UEAwwLT1ZQTl9OU0RfQ0GC
FFSrE4WnWayH7pw+a8VrnAdJYfjAMBMGA1UdJQQMMAoGCCsGAQUFBwMCMAsGA1Ud
DwQEAwIHgDANBgkqhkiG9w0BAQsFAAOCAQEAET3ZwW7BX6W+CPRQyCTJsdqyaE0j
YAkwJogxecoG2jA8IF4fSlcPZ53zC+kPSyQ1YU+Jxp5DzWd1GMT3Zw1uZNp9PI/c
NTOK1rHMhL8zENAhef/GW7nzsmnXvfO+jCdrk5esYscUUzH3GV+RvZcQRPWb5WZL
VI/6krmzFhpWJfZVpDaCWYNXwjo36d5/u3jNiV+s6QecS4Wtvi44owvewIjnDgmm
Jw6fdZJn9Env0Q5wn89eqos/fyw4QPGxL54dbyzscGZ/f0rlz5Lqz4fTlmuA0Z7H
I/4zzvm/z6BhBmUWX/DtJUWot/ikcN5rXDDEbjyL7yUi9HokTPTR05UAfA==
-----END CERTIFICATE-----
