Certificate:
    Data:
        Version: 3 (0x2)
        Serial Number:
            88:34:a2:ae:bd:93:f4:1e:58:97:fc:18:8f:90:e2:91
        Signature Algorithm: sha256WithRSAEncryption
        Issuer: CN=NSD_PROJECT
        Validity
            Not Before: Feb 20 15:38:39 2024 GMT
            Not After : May 25 15:38:39 2026 GMT
        Subject: CN=end_host_client
        Subject Public Key Info:
            Public Key Algorithm: rsaEncryption
                Public-Key: (2048 bit)
                Modulus:
                    00:a2:20:b2:f2:76:53:84:9d:42:04:38:eb:b2:bb:
                    56:25:b0:75:e8:14:0b:e4:be:e3:f1:1b:de:87:87:
                    88:3d:29:a7:93:0b:77:90:08:f9:7b:ca:4b:a0:01:
                    0a:a5:43:b7:79:1e:78:1b:72:e1:c7:e7:2f:b7:81:
                    db:3c:20:24:d7:ce:36:ae:11:c0:a2:8f:ae:a2:3c:
                    16:e5:54:b4:23:d2:2e:b0:1d:69:0b:5e:63:9f:bc:
                    6e:b8:ef:43:73:a5:32:9c:13:c3:c4:1a:89:4b:db:
                    c7:a6:a4:fb:d7:c1:3e:d2:c7:b6:12:e1:ff:b9:d5:
                    21:75:93:13:dc:fa:a7:68:81:e2:f4:65:98:bb:17:
                    2d:ae:0d:ec:21:7b:01:fe:96:8b:61:6b:00:49:eb:
                    14:8d:e0:75:a0:dd:48:bc:fa:6c:5f:03:23:12:5c:
                    f3:51:c9:9e:85:dc:5e:2e:b0:0a:7e:dd:e2:ca:dc:
                    3f:78:cc:7a:4c:1f:83:39:11:8a:7d:c7:59:34:d9:
                    1b:55:a9:51:f0:3b:5f:ae:f8:65:26:d6:83:f9:a8:
                    bf:bb:de:69:70:3a:7c:3c:6b:25:27:a9:2e:d9:cf:
                    ea:ef:ac:04:7a:15:c8:3d:11:e4:02:05:81:bd:5a:
                    4a:62:2f:88:13:d1:6b:73:3b:03:64:b1:29:a5:27:
                    49:17
                Exponent: 65537 (0x10001)
        X509v3 extensions:
            X509v3 Basic Constraints: 
                CA:FALSE
            X509v3 Subject Key Identifier: 
                F4:08:B5:09:86:3A:36:E6:B7:D3:9E:EF:5A:B8:C2:8D:0C:E6:EF:FC
            X509v3 Authority Key Identifier: 
                keyid:57:CA:BF:0F:99:A4:DB:6D:7F:42:66:9D:22:B8:F2:1E:84:20:1D:CD
                DirName:/CN=NSD_PROJECT
                serial:65:7B:BE:A7:2B:33:96:E6:68:3E:3A:46:D0:97:AB:0D:A3:95:E7:13
            X509v3 Extended Key Usage: 
                TLS Web Client Authentication
            X509v3 Key Usage: 
                Digital Signature
    Signature Algorithm: sha256WithRSAEncryption
    Signature Value:
        97:ce:27:e6:18:2e:75:1e:d5:e0:de:01:43:08:61:17:38:d5:
        78:0a:45:dc:f0:71:57:9b:ef:3e:18:e2:f7:55:9d:8c:2f:4f:
        b4:6c:aa:d4:61:86:4a:47:f8:75:e7:61:4c:c0:6a:75:ba:80:
        d4:4a:e0:34:4c:22:47:d2:9e:da:a1:86:6f:37:6b:87:7a:d5:
        e2:f0:76:3a:5f:5b:76:41:6e:b2:66:c8:4c:6c:c0:00:1b:3a:
        e9:f3:33:94:40:ff:63:3d:d4:ec:85:45:77:99:45:9f:c9:fd:
        48:79:df:d7:fd:58:db:db:03:6f:a3:fa:b8:b4:a9:06:aa:56:
        a4:aa:47:b4:63:2d:e6:e4:57:5d:0f:1f:69:50:12:30:85:ff:
        11:d1:dc:8a:c4:2a:7f:a3:8b:b8:b1:3b:8e:6a:03:f2:0a:3e:
        8c:11:94:9a:06:13:ca:97:95:17:b0:2b:a3:dd:00:50:6d:99:
        12:79:a4:5b:b0:b5:f1:fa:b0:40:0b:28:89:0d:f3:96:fd:7f:
        c8:9b:13:50:e7:93:be:57:ea:31:60:4f:9f:b6:25:f5:12:48:
        76:79:c4:fd:34:0b:ce:d5:d1:21:fc:7d:63:84:2b:e0:f2:39:
        51:32:f3:03:e9:7a:bf:f5:88:d8:60:0a:27:28:02:ff:c6:14:
        e2:88:10:aa
-----BEGIN CERTIFICATE-----
MIIDXjCCAkagAwIBAgIRAIg0oq69k/QeWJf8GI+Q4pEwDQYJKoZIhvcNAQELBQAw
FjEUMBIGA1UEAwwLTlNEX1BST0pFQ1QwHhcNMjQwMjIwMTUzODM5WhcNMjYwNTI1
MTUzODM5WjAaMRgwFgYDVQQDDA9lbmRfaG9zdF9jbGllbnQwggEiMA0GCSqGSIb3
DQEBAQUAA4IBDwAwggEKAoIBAQCiILLydlOEnUIEOOuyu1YlsHXoFAvkvuPxG96H
h4g9KaeTC3eQCPl7ykugAQqlQ7d5HngbcuHH5y+3gds8ICTXzjauEcCij66iPBbl
VLQj0i6wHWkLXmOfvG6470NzpTKcE8PEGolL28empPvXwT7Sx7YS4f+51SF1kxPc
+qdogeL0ZZi7Fy2uDewhewH+lothawBJ6xSN4HWg3Ui8+mxfAyMSXPNRyZ6F3F4u
sAp+3eLK3D94zHpMH4M5EYp9x1k02RtVqVHwO1+u+GUm1oP5qL+73mlwOnw8ayUn
qS7Zz+rvrAR6Fcg9EeQCBYG9WkpiL4gT0WtzOwNksSmlJ0kXAgMBAAGjgaIwgZ8w
CQYDVR0TBAIwADAdBgNVHQ4EFgQU9Ai1CYY6Nua3057vWrjCjQzm7/wwUQYDVR0j
BEowSIAUV8q/D5mk221/QmadIrjyHoQgHc2hGqQYMBYxFDASBgNVBAMMC05TRF9Q
Uk9KRUNUghRle76nKzOW5mg+OkbQl6sNo5XnEzATBgNVHSUEDDAKBggrBgEFBQcD
AjALBgNVHQ8EBAMCB4AwDQYJKoZIhvcNAQELBQADggEBAJfOJ+YYLnUe1eDeAUMI
YRc41XgKRdzwcVeb7z4Y4vdVnYwvT7RsqtRhhkpH+HXnYUzAanW6gNRK4DRMIkfS
ntqhhm83a4d61eLwdjpfW3ZBbrJmyExswAAbOunzM5RA/2M91OyFRXeZRZ/J/Uh5
39f9WNvbA2+j+ri0qQaqVqSqR7RjLebkV10PH2lQEjCF/xHR3IrEKn+ji7ixO45q
A/IKPowRlJoGE8qXlRewK6PdAFBtmRJ5pFuwtfH6sEALKIkN85b9f8ibE1Dnk75X
6jFgT5+2JfUSSHZ5xP00C87V0SH8fWOEK+DyOVEy8wPper/1iNhgCicoAv/GFOKI
EKo=
-----END CERTIFICATE-----
