Certificate:
    Data:
        Version: 3 (0x2)
        Serial Number:
            75:64:54:c4:01:a4:12:b7:b5:7a:d6:86:5b:24:3a:c0
        Signature Algorithm: sha256WithRSAEncryption
        Issuer: CN=NSD_PROJECT
        Validity
            Not Before: Feb 20 15:37:39 2024 GMT
            Not After : May 25 15:37:39 2026 GMT
        Subject: CN=server
        Subject Public Key Info:
            Public Key Algorithm: rsaEncryption
                Public-Key: (2048 bit)
                Modulus:
                    00:ea:a6:c7:62:3e:c3:2e:32:3d:ea:b3:8f:0d:2e:
                    d2:ac:c1:00:b8:39:f5:3c:09:87:f9:e2:3a:1d:93:
                    64:e4:99:e7:1f:2a:9e:cb:70:b2:a5:05:9a:f5:96:
                    4d:30:3f:15:84:f0:f2:c1:c5:16:fc:b8:5a:d0:d2:
                    e9:c4:6f:cc:00:26:15:82:71:d6:72:c9:d0:3d:d9:
                    79:9c:a7:94:24:31:02:2b:50:6b:7d:fe:95:ff:98:
                    6d:e7:6b:61:37:cf:d2:e8:73:4f:ea:0d:b3:e7:ac:
                    99:07:42:7b:8d:bd:84:f1:19:d2:6e:72:ad:fb:d9:
                    67:86:65:e1:b1:d9:8f:d8:a8:ad:48:b4:8c:3c:39:
                    97:f5:f8:46:14:61:6a:20:8c:50:47:df:58:f9:03:
                    4a:df:c6:e8:3d:84:f5:43:4e:4d:32:ba:a6:93:9d:
                    79:f8:47:53:5a:24:c1:3d:b2:12:cf:43:c6:d9:c6:
                    8e:20:dc:1a:74:cc:82:a5:6a:46:8b:01:58:a6:bf:
                    ed:ae:5b:c7:38:15:d5:0e:7a:47:12:6a:b7:b9:a9:
                    95:fe:db:8a:9e:7a:80:08:b0:a3:cb:07:14:ff:e8:
                    24:ce:13:7d:fa:2d:9d:da:06:6d:cc:14:ce:75:bc:
                    22:04:81:46:77:9c:53:93:f2:d7:7e:f4:4a:0d:9b:
                    0d:73
                Exponent: 65537 (0x10001)
        X509v3 extensions:
            X509v3 Basic Constraints: 
                CA:FALSE
            X509v3 Subject Key Identifier: 
                22:17:4E:8F:F7:8D:3E:4C:57:94:B5:8C:68:78:71:F9:B7:79:23:9E
            X509v3 Authority Key Identifier: 
                keyid:57:CA:BF:0F:99:A4:DB:6D:7F:42:66:9D:22:B8:F2:1E:84:20:1D:CD
                DirName:/CN=NSD_PROJECT
                serial:65:7B:BE:A7:2B:33:96:E6:68:3E:3A:46:D0:97:AB:0D:A3:95:E7:13
            X509v3 Extended Key Usage: 
                TLS Web Server Authentication
            X509v3 Key Usage: 
                Digital Signature, Key Encipherment
            X509v3 Subject Alternative Name: 
                DNS:server
    Signature Algorithm: sha256WithRSAEncryption
    Signature Value:
        97:e0:2a:f1:c3:61:4a:82:54:87:d3:47:3b:0e:cd:b4:a8:bf:
        cb:d1:89:07:34:67:5e:0d:c8:cb:72:de:cb:c4:70:17:77:eb:
        4b:33:b6:55:af:74:94:be:25:28:07:a7:7d:64:c3:6b:16:11:
        97:5a:aa:20:04:fb:54:35:94:d6:a4:c4:03:42:2e:2f:72:f3:
        fb:36:ac:a7:41:a8:4a:01:6f:0e:af:9d:e1:66:c6:20:6f:18:
        dd:95:30:9d:e8:d4:e4:ca:74:51:d8:06:f3:4d:cb:5e:2e:cc:
        eb:db:06:66:c9:b8:49:5f:1c:f5:b4:36:07:ef:54:59:4e:20:
        0a:78:02:02:3d:4b:bd:57:b8:34:f2:2d:9f:f6:54:07:45:d4:
        fe:7b:5d:91:22:a5:44:c2:11:eb:c3:55:e1:69:cb:e1:b3:7d:
        84:0a:27:dd:a9:37:13:39:37:f4:a9:1e:12:e3:48:e2:66:a1:
        f5:ac:e7:46:1c:1b:1c:b9:ea:17:7b:f3:42:06:02:c6:01:ec:
        20:8d:6e:0d:93:aa:0e:f4:bd:21:79:e1:7f:1c:12:d4:11:29:
        16:da:f5:c3:16:81:c7:9f:69:68:d2:10:a3:a3:b6:7a:60:34:
        f4:8f:13:6e:cc:2a:0e:4a:e2:05:09:ce:a7:82:74:08:86:ef:
        b9:eb:70:d1
-----BEGIN CERTIFICATE-----
MIIDZzCCAk+gAwIBAgIQdWRUxAGkEre1etaGWyQ6wDANBgkqhkiG9w0BAQsFADAW
MRQwEgYDVQQDDAtOU0RfUFJPSkVDVDAeFw0yNDAyMjAxNTM3MzlaFw0yNjA1MjUx
NTM3MzlaMBExDzANBgNVBAMMBnNlcnZlcjCCASIwDQYJKoZIhvcNAQEBBQADggEP
ADCCAQoCggEBAOqmx2I+wy4yPeqzjw0u0qzBALg59TwJh/niOh2TZOSZ5x8qnstw
sqUFmvWWTTA/FYTw8sHFFvy4WtDS6cRvzAAmFYJx1nLJ0D3ZeZynlCQxAitQa33+
lf+YbedrYTfP0uhzT+oNs+esmQdCe429hPEZ0m5yrfvZZ4Zl4bHZj9iorUi0jDw5
l/X4RhRhaiCMUEffWPkDSt/G6D2E9UNOTTK6ppOdefhHU1okwT2yEs9DxtnGjiDc
GnTMgqVqRosBWKa/7a5bxzgV1Q56RxJqt7mplf7bip56gAiwo8sHFP/oJM4Tffot
ndoGbcwUznW8IgSBRnecU5Py1370Sg2bDXMCAwEAAaOBtTCBsjAJBgNVHRMEAjAA
MB0GA1UdDgQWBBQiF06P940+TFeUtYxoeHH5t3kjnjBRBgNVHSMESjBIgBRXyr8P
maTbbX9CZp0iuPIehCAdzaEapBgwFjEUMBIGA1UEAwwLTlNEX1BST0pFQ1SCFGV7
vqcrM5bmaD46RtCXqw2jlecTMBMGA1UdJQQMMAoGCCsGAQUFBwMBMAsGA1UdDwQE
AwIFoDARBgNVHREECjAIggZzZXJ2ZXIwDQYJKoZIhvcNAQELBQADggEBAJfgKvHD
YUqCVIfTRzsOzbSov8vRiQc0Z14NyMty3svEcBd360sztlWvdJS+JSgHp31kw2sW
EZdaqiAE+1Q1lNakxANCLi9y8/s2rKdBqEoBbw6vneFmxiBvGN2VMJ3o1OTKdFHY
BvNNy14uzOvbBmbJuElfHPW0NgfvVFlOIAp4AgI9S71XuDTyLZ/2VAdF1P57XZEi
pUTCEevDVeFpy+GzfYQKJ92pNxM5N/SpHhLjSOJmofWs50YcGxy56hd780IGAsYB
7CCNbg2Tqg70vSF54X8cEtQRKRba9cMWgcefaWjSEKOjtnpgNPSPE27MKg5K4gUJ
zqeCdAiG77nrcNE=
-----END CERTIFICATE-----
